; Function Attrs: mustprogress uwtable
define noundef zeroext i1 @_ZNK5Ipopt25ExpandedMultiVectorMatrix19HasValidNumbersImplEv(ptr noundef nonnull readonly align 8 captures(none) dereferenceable(104) %0) unnamed_addr #0 align 2 {
  %2 = getelementptr inbounds nuw i8, ptr %0, i64 56
  %3 = load ptr, ptr %2, align 8, !tbaa !10
  %4 = getelementptr inbounds nuw i8, ptr %3, i64 12
  %5 = load i32, ptr %4, align 4, !tbaa !33
  %6 = icmp slt i32 %5, 1
  br i1 %6, label %._crit_edge.i._crit_edge, label %.lr.ph

.lr.ph:                                           ; preds = %1
  %7 = getelementptr inbounds nuw i8, ptr %0, i64 80
  br label %8

8:                                                ; preds = %.lr.ph, %26
  %9 = phi ptr [ %3, %.lr.ph ], [ %27, %26 ]
  %indvars.iv = phi i64 [ 0, %.lr.ph ], [ %indvars.iv.next, %26 ]
  %10 = load ptr, ptr %7, align 8, !tbaa !35
  %11 = getelementptr inbounds nuw %"class.Ipopt::SmartPtr.7", ptr %10, i64 %indvars.iv
  %12 = load ptr, ptr %11, align 8, !tbaa !36
  %.not = icmp eq ptr %12, null
  br i1 %.not, label %26, label %13

13:                                               ; preds = %8
  %14 = getelementptr inbounds nuw i8, ptr %12, i64 200
  %15 = load i32, ptr %14, align 8, !tbaa !97
  %16 = getelementptr inbounds nuw i8, ptr %12, i64 48
  %17 = load i32, ptr %16, align 8, !tbaa !93
  %.not.i = icmp eq i32 %15, %17
  br i1 %.not.i, label %._crit_edge.i, label %_ZNK5Ipopt6Vector15HasValidNumbersEv.exit

._crit_edge.i:                                    ; preds = %13
  %.phi.trans.insert.i = getelementptr inbounds nuw i8, ptr %12, i64 204
  %.pre.i = load i8, ptr %.phi.trans.insert.i, align 4, !tbaa !98, !range !66
  %18 = trunc nuw i8 %.pre.i to i1
  br i1 %18, label %._crit_edge.i._crit_edge, label %26

_ZNK5Ipopt6Vector15HasValidNumbersEv.exit:        ; preds = %13
  %19 = load ptr, ptr %12, align 8, !tbaa !8
  %20 = getelementptr inbounds nuw i8, ptr %19, i64 216
  %21 = load ptr, ptr %20, align 8
  %22 = tail call noundef zeroext i1 %21(ptr noundef nonnull align 8 dereferenceable(205) %12)
  %23 = getelementptr inbounds nuw i8, ptr %12, i64 204
  %24 = zext i1 %22 to i8
  store i8 %24, ptr %23, align 4, !tbaa !98
  %25 = load i32, ptr %16, align 8, !tbaa !93
  store i32 %25, ptr %14, align 8, !tbaa !97
  br i1 %22, label %._crit_edge.i._crit_edge, label %_ZNK5Ipopt6Vector15HasValidNumbersEv.exit._crit_edge

_ZNK5Ipopt6Vector15HasValidNumbersEv.exit._crit_edge: ; preds = %_ZNK5Ipopt6Vector15HasValidNumbersEv.exit
  %.pre = load ptr, ptr %2, align 8, !tbaa !10
  br label %26

26:                                               ; preds = %_ZNK5Ipopt6Vector15HasValidNumbersEv.exit._crit_edge, %._crit_edge.i, %8
  %27 = phi ptr [ %.pre, %_ZNK5Ipopt6Vector15HasValidNumbersEv.exit._crit_edge ], [ %9, %._crit_edge.i ], [ %9, %8 ]
  %indvars.iv.next = add nuw nsw i64 %indvars.iv, 1
  %28 = getelementptr inbounds nuw i8, ptr %27, i64 12
  %29 = load i32, ptr %28, align 4, !tbaa !33
  %30 = sext i32 %29 to i64
  %.not11 = icmp slt i64 %indvars.iv.next, %30
  br i1 %.not11, label %8, label %._crit_edge.i._crit_edge, !llvm.loop !99

._crit_edge.i._crit_edge:                         ; preds = %26, %_ZNK5Ipopt6Vector15HasValidNumbersEv.exit, %._crit_edge.i, %1
  %.lcssa = phi i1 [ true, %1 ], [ false, %._crit_edge.i ], [ false, %_ZNK5Ipopt6Vector15HasValidNumbersEv.exit ], [ true, %26 ]
  ret i1 %.lcssa
}